MPLINK 5.09, LINKER
Linker Map File - Created Mon Jun 16 18:27:02 2025

                                 Section Info
                  Section       Type    Address   Location Size(Bytes)
                ---------  ---------  ---------  ---------  ---------
                   .org_0       code   0x000000    program   0x000002
                   .cinit    romdata   0x000001    program   0x000004
                   .org_1       code   0x000004    program   0x000002
                   .org_2       code   0x000005    program   0x000272



                              Program Memory Usage 
                               Start         End      
                           ---------   ---------      
                            0x000000    0x000002      
                            0x000004    0x00013d      
            317 out of 8455 program addresses used, program memory utilization is 3%



                              Symbols - Sorted by Name
                     Name    Address   Location    Storage File                     
                ---------  ---------  ---------  --------- ---------                
       ACTUALIZAR_DISPLAY   0x0000cd    program     static C:\Users\Nico\Desktop\Carpetas\Facu\Digital 2\elec_dig_2\tp_digital2.X\codigo.asm
              BUCLE_RESTA   0x0000d2    program     static C:\Users\Nico\Desktop\Carpetas\Facu\Digital 2\elec_dig_2\tp_digital2.X\codigo.asm
          ESCANEAR_TECLAS   0x00008e    program     static C:\Users\Nico\Desktop\Carpetas\Facu\Digital 2\elec_dig_2\tp_digital2.X\codigo.asm
                FOUND_ROW   0x0000af    program     static C:\Users\Nico\Desktop\Carpetas\Facu\Digital 2\elec_dig_2\tp_digital2.X\codigo.asm
           GUARDAR_UNIDAD   0x0000da    program     static C:\Users\Nico\Desktop\Carpetas\Facu\Digital 2\elec_dig_2\tp_digital2.X\codigo.asm
              INICIAR_ADC   0x000057    program     static C:\Users\Nico\Desktop\Carpetas\Facu\Digital 2\elec_dig_2\tp_digital2.X\codigo.asm
                      ISR   0x0000f2    program     static C:\Users\Nico\Desktop\Carpetas\Facu\Digital 2\elec_dig_2\tp_digital2.X\codigo.asm
                  ISR_ADC   0x000122    program     static C:\Users\Nico\Desktop\Carpetas\Facu\Digital 2\elec_dig_2\tp_digital2.X\codigo.asm
                  ISR_RB0   0x000113    program     static C:\Users\Nico\Desktop\Carpetas\Facu\Digital 2\elec_dig_2\tp_digital2.X\codigo.asm
                 ISR_TMR0   0x000102    program     static C:\Users\Nico\Desktop\Carpetas\Facu\Digital 2\elec_dig_2\tp_digital2.X\codigo.asm
                 ISR_TMR1   0x000119    program     static C:\Users\Nico\Desktop\Carpetas\Facu\Digital 2\elec_dig_2\tp_digital2.X\codigo.asm
          ISR_TRANSMICION   0x00012a    program     static C:\Users\Nico\Desktop\Carpetas\Facu\Digital 2\elec_dig_2\tp_digital2.X\codigo.asm
                       L1   0x0000e1    program     static C:\Users\Nico\Desktop\Carpetas\Facu\Digital 2\elec_dig_2\tp_digital2.X\codigo.asm
                       L2   0x0000df    program     static C:\Users\Nico\Desktop\Carpetas\Facu\Digital 2\elec_dig_2\tp_digital2.X\codigo.asm
                     MAIN   0x000005    program     static C:\Users\Nico\Desktop\Carpetas\Facu\Digital 2\elec_dig_2\tp_digital2.X\codigo.asm
                MAIN_LOOP   0x00004a    program     static C:\Users\Nico\Desktop\Carpetas\Facu\Digital 2\elec_dig_2\tp_digital2.X\codigo.asm
            MUX_DISPLAY_1   0x00010d    program     static C:\Users\Nico\Desktop\Carpetas\Facu\Digital 2\elec_dig_2\tp_digital2.X\codigo.asm
                 NEXT_COL   0x0000b7    program     static C:\Users\Nico\Desktop\Carpetas\Facu\Digital 2\elec_dig_2\tp_digital2.X\codigo.asm
             RETARDO_20ms   0x0000dd    program     static C:\Users\Nico\Desktop\Carpetas\Facu\Digital 2\elec_dig_2\tp_digital2.X\codigo.asm
                    SALIR   0x000139    program     static C:\Users\Nico\Desktop\Carpetas\Facu\Digital 2\elec_dig_2\tp_digital2.X\codigo.asm
            SCAN_COL_LOOP   0x000091    program     static C:\Users\Nico\Desktop\Carpetas\Facu\Digital 2\elec_dig_2\tp_digital2.X\codigo.asm
            SCAN_ROW_LOOP   0x0000a5    program     static C:\Users\Nico\Desktop\Carpetas\Facu\Digital 2\elec_dig_2\tp_digital2.X\codigo.asm
               TABLA_7SEG   0x0000e7    program     static C:\Users\Nico\Desktop\Carpetas\Facu\Digital 2\elec_dig_2\tp_digital2.X\codigo.asm
                  TECLADO   0x00005d    program     static C:\Users\Nico\Desktop\Carpetas\Facu\Digital 2\elec_dig_2\tp_digital2.X\codigo.asm
    TECLADO_PRIMER_DIGITO   0x00008a    program     static C:\Users\Nico\Desktop\Carpetas\Facu\Digital 2\elec_dig_2\tp_digital2.X\codigo.asm
   TECLADO_SEGUNDO_DIGITO   0x00007a    program     static C:\Users\Nico\Desktop\Carpetas\Facu\Digital 2\elec_dig_2\tp_digital2.X\codigo.asm
                   TECLAS   0x0000c0    program     static C:\Users\Nico\Desktop\Carpetas\Facu\Digital 2\elec_dig_2\tp_digital2.X\codigo.asm



                              Symbols - Sorted by Address
                     Name    Address   Location    Storage File                     
                ---------  ---------  ---------  --------- ---------                
                     MAIN   0x000005    program     static C:\Users\Nico\Desktop\Carpetas\Facu\Digital 2\elec_dig_2\tp_digital2.X\codigo.asm
                MAIN_LOOP   0x00004a    program     static C:\Users\Nico\Desktop\Carpetas\Facu\Digital 2\elec_dig_2\tp_digital2.X\codigo.asm
              INICIAR_ADC   0x000057    program     static C:\Users\Nico\Desktop\Carpetas\Facu\Digital 2\elec_dig_2\tp_digital2.X\codigo.asm
                  TECLADO   0x00005d    program     static C:\Users\Nico\Desktop\Carpetas\Facu\Digital 2\elec_dig_2\tp_digital2.X\codigo.asm
   TECLADO_SEGUNDO_DIGITO   0x00007a    program     static C:\Users\Nico\Desktop\Carpetas\Facu\Digital 2\elec_dig_2\tp_digital2.X\codigo.asm
    TECLADO_PRIMER_DIGITO   0x00008a    program     static C:\Users\Nico\Desktop\Carpetas\Facu\Digital 2\elec_dig_2\tp_digital2.X\codigo.asm
          ESCANEAR_TECLAS   0x00008e    program     static C:\Users\Nico\Desktop\Carpetas\Facu\Digital 2\elec_dig_2\tp_digital2.X\codigo.asm
            SCAN_COL_LOOP   0x000091    program     static C:\Users\Nico\Desktop\Carpetas\Facu\Digital 2\elec_dig_2\tp_digital2.X\codigo.asm
            SCAN_ROW_LOOP   0x0000a5    program     static C:\Users\Nico\Desktop\Carpetas\Facu\Digital 2\elec_dig_2\tp_digital2.X\codigo.asm
                FOUND_ROW   0x0000af    program     static C:\Users\Nico\Desktop\Carpetas\Facu\Digital 2\elec_dig_2\tp_digital2.X\codigo.asm
                 NEXT_COL   0x0000b7    program     static C:\Users\Nico\Desktop\Carpetas\Facu\Digital 2\elec_dig_2\tp_digital2.X\codigo.asm
                   TECLAS   0x0000c0    program     static C:\Users\Nico\Desktop\Carpetas\Facu\Digital 2\elec_dig_2\tp_digital2.X\codigo.asm
       ACTUALIZAR_DISPLAY   0x0000cd    program     static C:\Users\Nico\Desktop\Carpetas\Facu\Digital 2\elec_dig_2\tp_digital2.X\codigo.asm
              BUCLE_RESTA   0x0000d2    program     static C:\Users\Nico\Desktop\Carpetas\Facu\Digital 2\elec_dig_2\tp_digital2.X\codigo.asm
           GUARDAR_UNIDAD   0x0000da    program     static C:\Users\Nico\Desktop\Carpetas\Facu\Digital 2\elec_dig_2\tp_digital2.X\codigo.asm
             RETARDO_20ms   0x0000dd    program     static C:\Users\Nico\Desktop\Carpetas\Facu\Digital 2\elec_dig_2\tp_digital2.X\codigo.asm
                       L2   0x0000df    program     static C:\Users\Nico\Desktop\Carpetas\Facu\Digital 2\elec_dig_2\tp_digital2.X\codigo.asm
                       L1   0x0000e1    program     static C:\Users\Nico\Desktop\Carpetas\Facu\Digital 2\elec_dig_2\tp_digital2.X\codigo.asm
               TABLA_7SEG   0x0000e7    program     static C:\Users\Nico\Desktop\Carpetas\Facu\Digital 2\elec_dig_2\tp_digital2.X\codigo.asm
                      ISR   0x0000f2    program     static C:\Users\Nico\Desktop\Carpetas\Facu\Digital 2\elec_dig_2\tp_digital2.X\codigo.asm
                 ISR_TMR0   0x000102    program     static C:\Users\Nico\Desktop\Carpetas\Facu\Digital 2\elec_dig_2\tp_digital2.X\codigo.asm
            MUX_DISPLAY_1   0x00010d    program     static C:\Users\Nico\Desktop\Carpetas\Facu\Digital 2\elec_dig_2\tp_digital2.X\codigo.asm
                  ISR_RB0   0x000113    program     static C:\Users\Nico\Desktop\Carpetas\Facu\Digital 2\elec_dig_2\tp_digital2.X\codigo.asm
                 ISR_TMR1   0x000119    program     static C:\Users\Nico\Desktop\Carpetas\Facu\Digital 2\elec_dig_2\tp_digital2.X\codigo.asm
                  ISR_ADC   0x000122    program     static C:\Users\Nico\Desktop\Carpetas\Facu\Digital 2\elec_dig_2\tp_digital2.X\codigo.asm
          ISR_TRANSMICION   0x00012a    program     static C:\Users\Nico\Desktop\Carpetas\Facu\Digital 2\elec_dig_2\tp_digital2.X\codigo.asm
                    SALIR   0x000139    program     static C:\Users\Nico\Desktop\Carpetas\Facu\Digital 2\elec_dig_2\tp_digital2.X\codigo.asm


