MPASM 5.87                        CODIGO.ASM   6-16-2025  12:28:31         PAGE  1


LOC  OBJECT CODE     LINE SOURCE TEXT
  VALUE

                      00001     LIST        p=16f887
                      00002     #INCLUDE    <p16f887.inc>
                      00001         LIST
                      00002 
                      00003 ;==========================================================================
                      00004 ; Build date : Jan 06 2020
                      00005 ;  MPASM PIC16F887 processor include
                      00006 ; 
                      00007 ;  (c) Copyright 1999-2020 Microchip Technology, All rights reserved
                      00008 ;==========================================================================
                      00009 
                      00810         LIST
                      00003     
                      00004 ;-------------------------------
                      00005 ; Variables externas
                      00006 ;-------------------------------
                      00007 ; Nos indica si estamos esperando un numero y si se ingreso el primer digito
                      00008 ; B0 = 1 = Esperando - B0 = 0 = No Esperando
                      00009 ; B1 = 0 = No se ingreso el primer digito - B1 = 1 = Se ingreso el primer digito
  00000020            00010 INGRESAR    EQU 0X20
                      00011 
                      00012 ; Temperatura de Referencia
  00000021            00013 TEMPREF     EQU 0X21
                      00014 
                      00015 ; Indice de tecla pulsada (0-15)
  00000022            00016 INDICE      EQU 0X22
                      00017 
                      00018 ; En que columna estoy (1-4)
  00000023            00019 COL         EQU 0X23
                      00020 
                      00021 ; Mascara de columna
  00000024            00022 COLMASK     EQU 0X24    
                      00023 
                      00024 ; Banderas
                      00025 ; B0: Bandera de 1 segundo - Si =1 comienza la conversion en ADC - Si =0 no compienza la conversion - Ba
                            ndera activada por TMR1 cada 1 segundo (FLAG_1SEG)
                      00026 ; B1: Bandera del ADC - Si = 1 el ADC finalizo - Si = 0 el ADC no termino (FLAG_ADC_OK)
                      00027 ; B2: Bandera para Tramistir - Si = 1 Hay que enviar la info por EUSART - Si = 0 no hay que inviar (FLAG
                            _TX)
                      00028 ; B3: Display que se prende - 0 = Display 2 (UNIDAD - RB2) - 1 = Display 1 (DECENA - RB1)
  00000025            00029 FLAG        EQU 0X25
                      00030             
                      00031 ; Displays
                      00032 
                      00033 ; Unidad
  00000026            00034 DIGITO_0    EQU 0X26
                      00035 
                      00036 ; Decena
  00000027            00037 DIGITO_1    EQU 0X27        
                      00038 
                      00039 ; Contador delay
  00000029            00040 CONT0 EQU 0X29       
  0000002A            00041 CONT1 EQU 0X2A 
MPASM 5.87                        CODIGO.ASM   6-16-2025  12:28:31         PAGE  2


LOC  OBJECT CODE     LINE SOURCE TEXT
  VALUE

  0000002B            00042 DIG1 EQU 0X2B        ; Primer dígito temporal
  0000002C            00043 WREG_TEMP EQU 0X2C   ; Variable temporal para cálculos
  0000002D            00044 WREG_TEMP2 EQU 0X2D  ; Variable temporal para cálulos
  0000002E            00045 TEMPACTUAL EQU 0X2E  ;Temperatura actual
                      00046 
                      00047 ; Para guardar contexto
  00000070            00048 WTEMP   EQU 0X70
  00000071            00049 STATUST EQU 0X71
                      00050 ; --------------------------------------------
                      00051     ORG     0X0
0000   2???           00052     GOTO    MAIN    ; El programa comienza en la direccion 0 y salta a la rutina principal MAIN.
                      00053 ; --------------------------------------------
                      00054     ORG     0X04
0004   2???           00055     GOTO    ISR     ; Si ocurre una interrupcion, el programa salta a la rutina ISR.
                      00056 ; --------------------------------------------
                      00057     ORG 0X05
0005                  00058 MAIN:
0005   01A0           00059     CLRF        INGRESAR    ; -- Limpieza de Banderas
0006   01A1           00060     CLRF        TEMPREF
0007   01A5           00061     CLRF        FLAG
                      00062 ;    CLRF        FLAG_1SEG   ;FLAG,B0
                      00063 ;    CLRF        FLAG_ADC_OK ;FLAG,B1
                      00064 ;    CLRF        FLAG_TX     ;FLAG,B2
0008   01A6           00065     CLRF        DIGITO_0        
0009   01A7           00066     CLRF        DIGITO_1     
                      00067 ;    CLRF        DISPLAY_FLAG ;FLAG,B3
                      00068 
000A   1683 1303      00069     BANKSEL     TRISD       ; -- Configuracion de Puertos
000C   30F0           00070     MOVLW       B'11110000' ; RD7-RD4 Entradas (filas), RD3-RD0 Filas (columnas)
Message[302]: Register in operand not in bank 0.  Ensure that bank bits are correct.
000D   0088           00071     MOVWF       TRISD
                      00072     ;CLRF        TRISC       ; Display segmentos como salida
000E   3001           00073     MOVLW       B'00000001' ; Configura el puerto B: RBO para el pulsador y RB1 -RB2 los habilitadores d
                            el display.
Message[302]: Register in operand not in bank 0.  Ensure that bank bits are correct.
000F   0086           00074     MOVWF       TRISB
Message[302]: Register in operand not in bank 0.  Ensure that bank bits are correct.
0010   1409           00075     BSF         TRISE,RE0   ; Configura el puerto E: RE0 como entrada analogica para el sensor y RE1 com
                            o salida para el LED.
Message[302]: Register in operand not in bank 0.  Ensure that bank bits are correct.
0011   1089           00076     BCF         TRISE,RE1   
Message[302]: Register in operand not in bank 0.  Ensure that bank bits are correct.
0012   0185           00077     CLRF        TRISA       ; Configura el puerto A como salida para enviar datos al display.
0013   1283 1303      00078     BANKSEL     PORTA
0015   0188           00079     CLRF        PORTD        ; Asegura que columnas inician en 0
0016   0186           00080     CLRF        PORTB
0017   0189           00081     CLRF        PORTE
0018   0185           00082     CLRF        PORTA
0019   1683 1703      00083     BANKSEL     ANSELH      ; Configura RB0 como entrada digital (no analógica).
Message[302]: Register in operand not in bank 0.  Ensure that bank bits are correct.
001B   1209           00084     BCF         ANSELH,ANS12
                      00085     
001C   1683 1303      00086     BANKSEL     OSCCON      ; -- Configura el oscilador interno del microcontrolador a 2 MHz.
MPASM 5.87                        CODIGO.ASM   6-16-2025  12:28:31         PAGE  3


LOC  OBJECT CODE     LINE SOURCE TEXT
  VALUE

001E   3058           00087     MOVLW       B'01011000'
Message[302]: Register in operand not in bank 0.  Ensure that bank bits are correct.
001F   008F           00088     MOVWF       OSCCON      
                      00089     
0020   1283 1303      00090     BANKSEL     ADCON0      ; -- Configuracion del ADC
0022   3015           00091     MOVLW       B'00010101' ; Canal AN5 (RE0), ADC habilitado pero no convirtiendo 
0023   009F           00092     MOVWF       ADCON0      ; Frecuencia = Fosc/2 = 1[MHz]
0024   019E           00093     CLRF        ADRESH      ; Limpio registro donde se guarda la conversion
0025   1683 1303      00094     BANKSEL     ADCON1
Message[302]: Register in operand not in bank 0.  Ensure that bank bits are correct.
0027   019F           00095     CLRF        ADCON1      ; Justificado a la izquierda, Vref = VDD-VSS
                      00096     
0028   1683 1303      00097     BANKSEL     TXSTA       ; -- Configuracion de la Tx
002A   3024           00098     MOVLW       B'00100100' ; TXEN=1, BRGH=1 (alta velocidad)
Message[302]: Register in operand not in bank 0.  Ensure that bank bits are correct.
002B   0098           00099     MOVWF       TXSTA
002C   1283 1303      00100     BANKSEL     RCSTA
002E   3080           00101     MOVLW       B'10000000' ; SPEN=1 habilita transmisor
002F   0098           00102     MOVWF       RCSTA
0030   1683 1303      00103     BANKSEL     SPBRG
0032   300C           00104     MOVLW       .12         ; Baud Rate 9600 con Fosc = 2MHz (BRGH=1): SPBRG=12
Message[302]: Register in operand not in bank 0.  Ensure that bank bits are correct.
0033   0099           00105     MOVWF       SPBRG
                      00106     
0034   1283 1303      00107     BANKSEL     T1CON       ; -- Timer 1
0036   018E           00108     CLRF        TMR1L
0037   018F           00109     CLRF        TMR1H
0038   3030           00110     MOVLW       B'00110000'
0039   0090           00111     MOVWF       T1CON            ; Inicializa el temporizador TMR1 y lo configura.
                      00112     
003A   1283 1303      00113     BANKSEL     INTCON              ; -- Configuracion de Interrupciones y TMR0
003C   30F0           00114     MOVLW       B'11110000'     ; Habilito GIE - PEIE - T0IE- INTE y limpio bandera INTF
003D   008B           00115     MOVWF       INTCON 
003E   018C           00116     CLRF            PIR1                    ; Limpio banderas de ADC - Tx - TRM1iF
003F   1683 1303      00117     BANKSEL     OPTION_REG
0041   3097           00118     MOVLW           B'10010111'     ; Flanco de bajada para INT - Frecuencia interna para TMR0 - Prescal
                            er para TMR0 - 1:256 (MODIFICAR EL PRESCALER)
Message[302]: Register in operand not in bank 0.  Ensure that bank bits are correct.
0042   0081           00119     MOVWF           OPTION_REG  
0043   1683 1303      00120     BANKSEL         PIE1                
0045   3051           00121     MOVLW       B'01010001'     ; Habilito interrupciones por ADC - TX - TMR1
Message[302]: Register in operand not in bank 0.  Ensure that bank bits are correct.
0046   008C           00122     MOVWF       PIE1            
                      00123 
                      00124     ;Activo TMR1
0047   1283 1303      00125     BANKSEL     T1CON
0049   1410           00126     BSF         T1CON,0             
                      00127 ; --------------------------------------------
004A                  00128 MAIN_LOOP:                      ; -- Loop Principal
004A   1820           00129     BTFSC       INGRESAR,0          ; Si está esperando ingreso de número
004B   2???           00130     CALL        TECLADO             ; Llama a la rutina de teclado
004C   1820           00131     BTFSC       INGRESAR,0      ; Si sigue esperando ingreso, no hace nada más
004D   2???           00132     GOTO        MAIN_LOOP
MPASM 5.87                        CODIGO.ASM   6-16-2025  12:28:31         PAGE  4


LOC  OBJECT CODE     LINE SOURCE TEXT
  VALUE

                      00133                 ;FLAG,0    
004E   1825           00134     BTFSC           FLAG,0   ; Si pasó 1 segundo, inicio conversión ADC
004F   2???           00135     GOTO        INICIAR_ADC     ; Si no pasó 1 segundo, sigue
                      00136                 ;FLAG,1
0050   18A5           00137     BTFSC       FLAG,1  ; Si el ADC finalizó, preparar para transmitir ;FLAG,B1
0051   2???           00138     GOTO        PREPARAR_TX
                      00139                 ;FLAG,2
0052   1925           00140     BTFSC       FLAG,2      ; Si hay que transmitir, enviar por UART
0053   2???           00141     GOTO        ENVIAR_UART
                      00142 
                      00143     ; Comparación de temperatura actual con la temperatura de referencia para prender el led
0054   0821           00144     MOVF        TEMPREF,W
0055   022E           00145     SUBWF       TEMPACTUAL,W
0056   1803           00146     BTFSC       STATUS,C            ; Si TEMPACTUAL >= TEMPREF
0057   1489           00147     BSF         PORTE,RE1           ; Enciende LED
                      00148     ; FALTA: Apagar el LED si TEMPACTUAL < TEMPREF
0058   1C03           00149     BTFSS       STATUS,C
0059   1089           00150     BCF         PORTE,RE1
005A   2???           00151     GOTO        MAIN_LOOP
                      00152 
005B                  00153 INICIAR_ADC:
005B   1025           00154     BCF             FLAG,0
005C   1283 1303      00155     BANKSEL         ADCON0
005E   149F           00156     BSF             ADCON0, GO     ; Iniciar conversión del ADC
005F   141F           00157     BSF             ADCON0, ADON
0060   2???           00158     GOTO        MAIN_LOOP
                      00159 
0061                  00160 PREPARAR_TX:
0061   10A5           00161     BCF         FLAG,1
0062   1525           00162     BSF         FLAG,2     ; Listo para enviar por UART ;FLAG,2
0063   2???           00163     GOTO        MAIN_LOOP
                      00164 
0064                  00165 ENVIAR_UART: ; Enviar TEMPACTUAL por UART como ASCII (2 dígitos)
0064   082E           00166     MOVF    TEMPACTUAL, W
0065   00AC           00167     MOVWF   WREG_TEMP
0066   300A           00168     MOVLW   .10
0067   00AD           00169     MOVWF   WREG_TEMP2
0068   01AB           00170     CLRF    DIG1
                      00171     
0069                  00172 DIV_LOOP:   ; Dividir por 10 para obtener decena
0069   082C           00173     MOVF    WREG_TEMP, W
006A   022D           00174     SUBWF   WREG_TEMP2, W
006B   1C03           00175     BTFSS   STATUS, C
006C   2???           00176     GOTO    ENVIAR_DIGITOS
006D   0FAB           00177     INCFSZ  DIG1, F
006E   02AC           00178     SUBWF   WREG_TEMP, F
006F   2???           00179     GOTO    DIV_LOOP
                      00180 
0070                  00181 ENVIAR_DIGITOS: ; Enviar decena
0070   082B           00182     MOVF    DIG1, W
0071   3E30           00183     ADDLW   '0'
0072   0099           00184     MOVWF   TXREG
0073                  00185 ESPERO_TX1:
MPASM 5.87                        CODIGO.ASM   6-16-2025  12:28:31         PAGE  5


LOC  OBJECT CODE     LINE SOURCE TEXT
  VALUE

0073   1E0C           00186     BTFSS   PIR1,TXIF
0074   2???           00187     GOTO    ESPERO_TX1
0075   082C           00188     MOVF    WREG_TEMP, W    ; Enviar unidad
0076   3E30           00189     ADDLW   '0'
0077   0099           00190     MOVWF   TXREG
0078                  00191 ESPERO_TX2:
0078   1E0C           00192     BTFSS   PIR1,TXIF
0079   2???           00193     GOTO    ESPERO_TX2
007A   300A           00194     MOVLW   0x0A    ; Agregar salto de línea (LF, 0x0A)
007B   0099           00195     MOVWF   TXREG
007C                  00196 ESPERO_TX3:
007C   1E0C           00197     BTFSS   PIR1,TXIF
007D   2???           00198     GOTO    ESPERO_TX3
007E   1125           00199     BCF     FLAG,2
007F   2???           00200     GOTO    MAIN_LOOP
                      00201 ; --------------------------------------------
0080                  00202 TECLADO:                    ; Subrutina de Teclado
0080   1283 1303      00203     BANKSEL     PORTD
0082   300E           00204     MOVLW       0x0E        ; RD3-RD1 en 1 (columnas), RD7-RD4 entradas (filas)
0083   0488           00205     IORWF       PORTD, F    ; Asegura columnas en 1
0084   0808           00206     MOVF        PORTD, W    ; Lee filas
0085   39F0           00207     ANDLW       0xF0        ; Enmascara filas
0086   1903           00208     BTFSC       STATUS, Z
0087   2???           00209     GOTO        TECLADO     ; No hay teclas presionadas
0088   2???           00210     CALL        RETARDO_20ms
0089   0808           00211     MOVF        PORTD, W
008A   39F0           00212     ANDLW       0xF0
008B   1903           00213     BTFSC       STATUS, Z
008C   2???           00214     GOTO        TECLADO     ; No hay teclas presionadas
008D   2???           00215     CALL        ESCANEAR_TECLAS
008E   0822           00216     MOVF        INDICE, W
008F   3C0B           00217     SUBLW       0x0B        ; Solo índices 0-11 válidos
0090   1C03           00218     BTFSS       STATUS, C
0091   0008           00219     RETURN                  ; No válido
0092   0822           00220     MOVF        INDICE, W
0093   2???           00221     CALL        TECLAS
0094   00AC           00222     MOVWF       WREG_TEMP
0095   082C           00223     MOVF        WREG_TEMP, W
0096   3AFF           00224     XORLW       0xFF
0097   1903           00225     BTFSC       STATUS, Z
0098   0008           00226     RETURN      ; Si es 0xFF, no hacer nada
0099   1CA0           00227     BTFSS       INGRESAR, 1
009A   2???           00228     GOTO        TECLADO_PRIMER_DIGITO
009B   2???           00229     CALL        TECLADO_SEGUNDO_DIGITO
009C   0008           00230     RETURN
                      00231 
009D                  00232 TECLADO_SEGUNDO_DIGITO:
009D   082B           00233     MOVF    DIG1, W
009E   00A1           00234     MOVWF   TEMPREF
009F   082B           00235     MOVF    DIG1, W
00A0   0D2C           00236     RLF     WREG_TEMP, W
00A1   07A1           00237     ADDWF   TEMPREF, F
00A2   0821           00238     MOVF    TEMPREF, W
MPASM 5.87                        CODIGO.ASM   6-16-2025  12:28:31         PAGE  6


LOC  OBJECT CODE     LINE SOURCE TEXT
  VALUE

00A3   0D2C           00239     RLF     WREG_TEMP, W
00A4   07A1           00240     ADDWF   TEMPREF, F
00A5   082B           00241     MOVF    DIG1, W
00A6   07A1           00242     ADDWF   TEMPREF, F
00A7   082C           00243     MOVF    WREG_TEMP, W
00A8   07A1           00244     ADDWF   TEMPREF, F
00A9   2???           00245     CALL    ACTUALIZAR_DISPLAY
00AA   1020           00246     BCF     INGRESAR, 0
00AB   10A0           00247     BCF     INGRESAR, 1
00AC   0008           00248     RETURN
                      00249 
00AD                  00250 TECLADO_PRIMER_DIGITO:
00AD   082C           00251     MOVF    WREG_TEMP, W
00AE   00AB           00252     MOVWF   DIG1
00AF   14A0           00253     BSF     INGRESAR, 1
00B0   2???           00254     GOTO    TECLADO
                      00255 
00B1                  00256 ESCANEAR_TECLAS:
00B1   01A3           00257     CLRF    COL
00B2   3002           00258     MOVLW   0x02            ; RD1 (columna 1)
00B3   00A4           00259     MOVWF   COLMASK
00B4                  00260 SCAN_COL_LOOP:
00B4   300E           00261     MOVLW   0x0E            ; RD3-RD1 en 1
00B5   0488           00262     IORWF   PORTD, F
00B6   0924           00263     COMF    COLMASK, W      ; Columna activa en 0
00B7   390E           00264     ANDLW   0x0E            ; Solo columnas
00B8   38F0           00265     IORLW   0xF0            ; Filas en 1
00B9   0088           00266     MOVWF   PORTD
00BA   0000           00267     NOP
00BB   0000           00268     NOP
00BC   0808           00269     MOVF    PORTD, W
00BD   39F0           00270     ANDLW   0xF0
00BE   3AF0           00271     XORLW   0xF0
00BF   1903           00272     BTFSC   STATUS, Z
00C0   2???           00273     GOTO    NEXT_COL
00C1   0808           00274     MOVF    PORTD, W
00C2   39F0           00275     ANDLW   0xF0
00C3   3AF0           00276     XORLW   0xF0
00C4   00AC           00277     MOVWF   WREG_TEMP
00C5   01A2           00278     CLRF    INDICE
00C6   3080           00279     MOVLW   0x80            ; RD7 (fila 1)
00C7   00AD           00280     MOVWF   WREG_TEMP2
00C8                  00281 SCAN_ROW_LOOP:
00C8   082C           00282     MOVF    WREG_TEMP, W
00C9   052D           00283     ANDWF   WREG_TEMP2, W
00CA   1D03           00284     BTFSS   STATUS, Z
00CB   2???           00285     GOTO    FOUND_ROW
00CC   0AA2           00286     INCF    INDICE, F
00CD   0CAD           00287     RRF     WREG_TEMP2, F   ; Siguiente fila (RD7->RD6->RD5->RD4)
00CE   082D           00288     MOVF    WREG_TEMP2, W
00CF   1903           00289     BTFSC   STATUS, Z
00D0   2???           00290     GOTO    NEXT_COL
00D1   2???           00291     GOTO    SCAN_ROW_LOOP
MPASM 5.87                        CODIGO.ASM   6-16-2025  12:28:31         PAGE  7


LOC  OBJECT CODE     LINE SOURCE TEXT
  VALUE

00D2                  00292 FOUND_ROW:
                      00293     ; INDICE = número de fila (0-3)
                      00294     ; Calcula índice físico: INDICE = fila*3 + (columna-1)
00D2   0822           00295     MOVF    INDICE, W
00D3   00AD           00296     MOVWF   WREG_TEMP2
00D4   0DAD           00297     RLF     WREG_TEMP2, F   ; *2
00D5   0722           00298     ADDWF   INDICE, W       ; W = fila*3 + fila
00D6   0823           00299     MOVF    COL, W
00D7   072D           00300     ADDWF   WREG_TEMP2, W   ; W = fila*3 + columna
00D8   00A2           00301     MOVWF   INDICE
00D9   0008           00302     RETURN
00DA                  00303 NEXT_COL:
00DA   0AA3           00304     INCF    COL, F
00DB   3003           00305     MOVLW   0x03
00DC   0223           00306     SUBWF   COL, W
00DD   1D03           00307     BTFSS   STATUS, Z
00DE   0DA4           00308     RLF     COLMASK, F
00DF   2???           00309     GOTO    SCAN_COL_LOOP
00E0   30FF           00310     MOVLW   0xFF            ; No se detectó tecla
00E1   00A2           00311     MOVWF   INDICE
00E2   0008           00312     RETURN
00E3                  00313 TECLAS:
00E3   0782           00314     ADDWF   PCL, F
00E4   34FF           00315     RETLW   0xFF    ; 0: * (fila 1, col 1)
00E5   3400           00316     RETLW   0x00    ; 1: 0 (fila 1, col 2)
00E6   34FF           00317     RETLW   0xFF    ; 2: # (fila 1, col 3)
00E7   3407           00318     RETLW   0x07    ; 3: 7 (fila 2, col 1)
00E8   3408           00319     RETLW   0x08    ; 4: 8 (fila 2, col 2)
00E9   3409           00320     RETLW   0x09    ; 5: 9 (fila 2, col 3)
00EA   3404           00321     RETLW   0x04    ; 6: 4 (fila 3, col 1)
00EB   3405           00322     RETLW   0x05    ; 7: 5 (fila 3, col 2)
00EC   3406           00323     RETLW   0x06    ; 8: 6 (fila 3, col 3)
00ED   3401           00324     RETLW   0x01    ; 9: 1 (fila 4, col 1)
00EE   3402           00325     RETLW   0x02    ; 10: 2 (fila 4, col 2)
00EF   3403           00326     RETLW   0x03    ; 11: 3 (fila 4, col 3)
                      00327     ; Eliminado el índice 12, ya que solo hay 12 teclas en 4x3
                      00328 
                      00329 ;----------------------------------------------------------
                      00330 ;Subrutina del display
                      00331 ;------------------------------------------------------------------------
00F0                  00332 ACTUALIZAR_DISPLAY:
00F0   082E           00333     MOVF    TEMPACTUAL, W ; o TEMPREF
00F1   00AC           00334     MOVWF   WREG_TEMP
00F2   300A           00335     MOVLW   .10
00F3   00AD           00336     MOVWF   WREG_TEMP2
00F4   01A7           00337     CLRF    DIGITO_1
00F5                  00338 BUCLE_RESTA:
00F5   022C           00339     SUBWF   WREG_TEMP, W
00F6   1C03           00340     BTFSS   STATUS, C
00F7   2???           00341     GOTO    GUARDAR_UNIDAD
00F8   0AA7           00342     INCF    DIGITO_1, F
00F9   082C           00343     MOVF    WREG_TEMP, W
00FA   022D           00344     SUBWF   WREG_TEMP2, W
MPASM 5.87                        CODIGO.ASM   6-16-2025  12:28:31         PAGE  8


LOC  OBJECT CODE     LINE SOURCE TEXT
  VALUE

00FB   00AC           00345     MOVWF   WREG_TEMP
00FC   2???           00346     GOTO    BUCLE_RESTA
00FD                  00347 GUARDAR_UNIDAD:
00FD   082C           00348     MOVF    WREG_TEMP, W
00FE   00A6           00349     MOVWF   DIGITO_0
00FF   0008           00350     RETURN
                      00351 ; --------------------------------------------
0100                  00352 RETARDO_20ms:           ; Rutina de retardo aproximado de 20 ms usando bucles anidados.
0100   300A           00353     MOVLW       .10
0101   00A9           00354     MOVWF       CONT0
0102   30FA           00355 L2  MOVLW       .250
0103   00AA           00356     MOVWF       CONT1
0104   0000           00357 L1  NOP             
0105   0BAA           00358     DECFSZ      CONT1, 1
0106   2???           00359     GOTO        L1
0107   0BA9           00360     DECFSZ      CONT0,1
0108   2???           00361     GOTO        L2
0109   0008           00362     RETURN
                      00363 ;-----------------------------------------------------------------------------
010A                  00364 TABLA_7SEG: ;Complementar
Warning[202]: Argument out of range.  Least significant bits used.
010A   0702           00365     ADDWF   PCL,PCL
010B   34C0           00366     RETLW   B'11000000' ; 0
010C   34F9           00367     RETLW   B'11111001' ; 1
010D   34A4           00368     RETLW   B'10100100' ; 2
010E   34B0           00369     RETLW   B'10110000' ; 3
010F   3499           00370     RETLW   B'10011001' ; 4
0110   3492           00371     RETLW   B'10010010' ; 5
0111   3482           00372     RETLW   B'10000010' ; 6
0112   34F8           00373     RETLW   B'11111000' ; 7
0113   3480           00374     RETLW   B'10000000' ; 8
0114   3490           00375     RETLW   B'10010000' ; 9
                      00376 ; --------------------------------------------
0115                  00377 ISR:                    ; Rutina principal de atención a interrupciones: verifica la fuente y salta a l
                            a rutina correspondiente.
0115   00F0           00378     MOVWF   WTEMP       ;Guardo el contexto previo a la interrupcion
0116   0E03           00379     SWAPF   STATUS,W
0117   00F1           00380     MOVWF   STATUST
0118   190B           00381     BTFSC   INTCON, T0IF  ;Testeo del Timer0
0119   2???           00382     GOTO    ISR_TMR0   
011A   1283 1303      00383     BANKSEL PIR1        ; Testeo de banderas
011C   188B           00384     BTFSC   INTCON,INTF ; Bandera del Pulsador
011D   2???           00385     GOTO    ISR_RB0
011E   180C           00386     BTFSC   PIR1,TMR1IF  ; Bandera del TMR1
011F   2???           00387     GOTO    ISR_TMR1
0120   1B0C           00388     BTFSC   PIR1,ADIF   ; Bandera del ADC
0121   2???           00389     GOTO    ISR_ADC
0122   1A0C           00390     BTFSC   PIR1,TXIF   ;Bandera de Tx
0123   2???           00391     GOTO    ISR_TRANSMICION 
0124   2???           00392     GOTO    SALIR
                      00393 ; --------------------------------------------
0125                  00394 ISR_TMR0:
0125   110B           00395     BCF     INTCON, T0IF
MPASM 5.87                        CODIGO.ASM   6-16-2025  12:28:31         PAGE  9


LOC  OBJECT CODE     LINE SOURCE TEXT
  VALUE

0126   1086           00396     BCF     PORTB, RB1
0127   1106           00397     BCF     PORTB, RB2
0128   19A5           00398     BTFSC   FLAG,3
                      00399 ;    MOVF    DISPLAY_FLAG, W
                      00400 ;    BTFSC   STATUS, Z
0129   2???           00401     GOTO    MUX_DISPLAY_1
                      00402     ; Mostrar unidad
012A   0826           00403     MOVF    DIGITO_0, W
012B   2???           00404     CALL    TABLA_7SEG
012C   0085           00405     MOVWF   PORTA
012D   1506           00406     BSF     PORTB, RB2
012E   15A5           00407     BSF     FLAG,3
                      00408 ;    CLRF    DISPLAY_FLAG
012F   2???           00409     GOTO    SALIR
0130                  00410 MUX_DISPLAY_1:
0130   0827           00411     MOVF    DIGITO_1, W
0131   2???           00412     CALL    TABLA_7SEG
0132   0085           00413     MOVWF   PORTA
0133   1486           00414     BSF     PORTB, RB1
0134   11A5           00415     BCF     FLAG,3
                      00416 ;    MOVLW   0x01
                      00417 ;    MOVWF   DISPLAY_FLAG
0135   2???           00418     GOTO    SALIR
                      00419 ;----------------------------------------------
0136                  00420 ISR_RB0:     ; Atiende la interrupción por el pulsador en RB0 y conmuta la bandera de ingreso.
0136   108B           00421     BCF     INTCON,INTF
0137   1283 1303      00422     BANKSEL INGRESAR
0139   3001           00423     MOVLW   .1
013A   06A0           00424     XORWF   INGRESAR,F   ;si estaba en 1 pasa a 0, si estaba en 0 pasa a 1
013B   2???           00425     GOTO    SALIR
                      00426 ; --------------------------------------------
013C                  00427 ISR_TMR1:   ; Atiende la interrupción del temporizador 1 y activa la bandera de 1 segundo.
013C   100C           00428     BCF     PIR1,TMR1IF
013D   1425           00429     BSF     FLAG,0
013E   2???           00430     GOTO    SALIR
                      00431 ; --------------------------------------------
013F                  00432 ISR_ADC:    ; Atiende la interrupcion del ADC y limpia la bandera correspondiente.
013F   130C           00433     BCF     PIR1,ADIF
0140   1283 1303      00434     BANKSEL ADRESH
0142   081E           00435     MOVF    ADRESH, W           ; Leemos solo ADRESH (justificado a la izquierda)
0143   00AE           00436     MOVWF   TEMPACTUAL          ; Guardamos la temperatura
0144   2???           00437     CALL    ACTUALIZAR_DISPLAY  ; Cada vez que se complete una conversion del ADC se actualizan los disp
                            lays *(REVISAR POR LAS DUDAS)*
0145   14A5           00438     BSF     FLAG,1
0146   2???           00439     GOTO    SALIR
                      00440 ; --------------------------------------------
0147                  00441 ISR_TRANSMICION:    ; Interrumpe cuando el buffer esta limpio
0147   120C           00442     BCF     PIR1,TXIF
0148   1125           00443     BCF     FLAG,2
0149   2???           00444     GOTO    SALIR
                      00445 ; --------------------------------------------
014A                  00446 SALIR:      ; Restaura el contexto y retorna de la interrupción.
014A   0E71           00447     SWAPF   STATUST,W
MPASM 5.87                        CODIGO.ASM   6-16-2025  12:28:31         PAGE 10


LOC  OBJECT CODE     LINE SOURCE TEXT
  VALUE

014B   00F1           00448     MOVWF   STATUST
014C   0EF0           00449     SWAPF   WTEMP,F
014D   0E70           00450     SWAPF   WTEMP,W
014E   0009           00451     RETFIE
                      00452 ; --------------------------------------------
                      00453     END
MPASM 5.87                        CODIGO.ASM   6-16-2025  12:28:31         PAGE 11


SYMBOL TABLE
  LABEL                             VALUE 

ABDEN                             00000000
ABDOVF                            00000007
ACKDT                             00000005
ACKEN                             00000004
ACKSTAT                           00000006
ACTUALIZAR_DISPLAY                000000F0
ADCON0                            0000001F
ADCON1                            0000009F
ADCS0                             00000006
ADCS1                             00000007
ADDEN                             00000003
ADFM                              00000007
ADIE                              00000006
ADIF                              00000006
ADON                              00000000
ADRESH                            0000001E
ADRESL                            0000009E
ANS0                              00000000
ANS1                              00000001
ANS10                             00000002
ANS11                             00000003
ANS12                             00000004
ANS13                             00000005
ANS2                              00000002
ANS3                              00000003
ANS4                              00000004
ANS5                              00000005
ANS6                              00000006
ANS7                              00000007
ANS8                              00000000
ANS9                              00000001
ANSEL                             00000188
ANSELH                            00000189
BAUDCTL                           00000187
BCLIE                             00000003
BCLIF                             00000003
BF                                00000000
BRG0                              00000000
BRG1                              00000001
BRG10                             00000002
BRG11                             00000003
BRG12                             00000004
BRG13                             00000005
BRG14                             00000006
BRG15                             00000007
BRG16                             00000003
BRG2                              00000002
BRG3                              00000003
BRG4                              00000004
BRG5                              00000005
BRG6                              00000006
BRG7                              00000007
BRG8                              00000000
MPASM 5.87                        CODIGO.ASM   6-16-2025  12:28:31         PAGE 12


SYMBOL TABLE
  LABEL                             VALUE 

BRG9                              00000001
BRGH                              00000002
BUCLE_RESTA                       000000F5
C                                 00000000
C1CH0                             00000000
C1CH1                             00000001
C1IE                              00000005
C1IF                              00000005
C1OE                              00000005
C1ON                              00000007
C1OUT                             00000006
C1POL                             00000004
C1R                               00000002
C1RSEL                            00000005
C1SEN                             00000005
C2CH0                             00000000
C2CH1                             00000001
C2IE                              00000006
C2IF                              00000006
C2OE                              00000005
C2ON                              00000007
C2OUT                             00000006
C2POL                             00000004
C2R                               00000002
C2REN                             00000004
C2RSEL                            00000004
C2SYNC                            00000000
CCP1CON                           00000017
CCP1IE                            00000002
CCP1IF                            00000002
CCP1M0                            00000000
CCP1M1                            00000001
CCP1M2                            00000002
CCP1M3                            00000003
CCP1X                             00000005
CCP1Y                             00000004
CCP2CON                           0000001D
CCP2IE                            00000000
CCP2IF                            00000000
CCP2M0                            00000000
CCP2M1                            00000001
CCP2M2                            00000002
CCP2M3                            00000003
CCP2X                             00000005
CCP2Y                             00000004
CCPR1                             00000015
CCPR1H                            00000016
CCPR1L                            00000015
CCPR2                             0000001B
CCPR2H                            0000001C
CCPR2L                            0000001B
CHS0                              00000002
CHS1                              00000003
MPASM 5.87                        CODIGO.ASM   6-16-2025  12:28:31         PAGE 13


SYMBOL TABLE
  LABEL                             VALUE 

CHS2                              00000004
CHS3                              00000005
CKE                               00000006
CKP                               00000004
CM1CON0                           00000107
CM2CON0                           00000108
CM2CON1                           00000109
COL                               00000023
COLMASK                           00000024
CONT0                             00000029
CONT1                             0000002A
CREN                              00000004
CSRC                              00000007
D                                 00000005
DATA_ADDRESS                      00000005
DC                                00000001
DC1B0                             00000004
DC1B1                             00000005
DC2B0                             00000004
DC2B1                             00000005
DIG1                              0000002B
DIGITO_0                          00000026
DIGITO_1                          00000027
DIV_LOOP                          00000069
D_A                               00000005
D_NOT_A                           00000005
ECCPAS                            0000009C
ECCPAS0                           00000004
ECCPAS1                           00000005
ECCPAS2                           00000006
ECCPASE                           00000007
EEADR                             0000010D
EEADRH                            0000010F
EECON1                            0000018C
EECON2                            0000018D
EEDAT                             0000010C
EEDATA                            0000010C
EEDATH                            0000010E
EEIE                              00000004
EEIF                              00000004
EEPGD                             00000007
ENVIAR_DIGITOS                    00000070
ENVIAR_UART                       00000064
ESCANEAR_TECLAS                   000000B1
ESPERO_TX1                        00000073
ESPERO_TX2                        00000078
ESPERO_TX3                        0000007C
F                                 00000001
FERR                              00000002
FLAG                              00000025
FOUND_ROW                         000000D2
FSR                               00000004
FVREN                             00000000
MPASM 5.87                        CODIGO.ASM   6-16-2025  12:28:31         PAGE 14


SYMBOL TABLE
  LABEL                             VALUE 

GCEN                              00000007
GIE                               00000007
GO                                00000001
GO_DONE                           00000001
GO_NOT_DONE                       00000001
GUARDAR_UNIDAD                    000000FD
HTS                               00000002
I2C_DATA                          00000005
I2C_READ                          00000002
I2C_START                         00000003
I2C_STOP                          00000004
INDF                              00000000
INDICE                            00000022
INGRESAR                          00000020
INICIAR_ADC                       0000005B
INTCON                            0000000B
INTE                              00000004
INTEDG                            00000006
INTF                              00000001
IOCB                              00000096
IOCB0                             00000000
IOCB1                             00000001
IOCB2                             00000002
IOCB3                             00000003
IOCB4                             00000004
IOCB5                             00000005
IOCB6                             00000006
IOCB7                             00000007
IRCF0                             00000004
IRCF1                             00000005
IRCF2                             00000006
IRP                               00000007
ISR                               00000115
ISR_ADC                           0000013F
ISR_RB0                           00000136
ISR_TMR0                          00000125
ISR_TMR1                          0000013C
ISR_TRANSMICION                   00000147
L1                                00000104
L2                                00000102
LTS                               00000001
MAIN                              00000005
MAIN_LOOP                         0000004A
MC1OUT                            00000007
MC2OUT                            00000006
MSK                               00000093
MSK0                              00000000
MSK1                              00000001
MSK2                              00000002
MSK3                              00000003
MSK4                              00000004
MSK5                              00000005
MSK6                              00000006
MPASM 5.87                        CODIGO.ASM   6-16-2025  12:28:31         PAGE 15


SYMBOL TABLE
  LABEL                             VALUE 

MSK7                              00000007
MUX_DISPLAY_1                     00000130
NEXT_COL                          000000DA
NOT_A                             00000005
NOT_ADDRESS                       00000005
NOT_BO                            00000000
NOT_BOR                           00000000
NOT_DONE                          00000001
NOT_PD                            00000003
NOT_POR                           00000001
NOT_RBPU                          00000007
NOT_RC8                           00000006
NOT_T1SYNC                        00000002
NOT_TO                            00000004
NOT_TX8                           00000006
NOT_W                             00000002
NOT_WRITE                         00000002
OERR                              00000001
OPTION_REG                        00000081
OSCCON                            0000008F
OSCTUNE                           00000090
OSFIE                             00000007
OSFIF                             00000007
OSTS                              00000003
P                                 00000004
P1M0                              00000006
P1M1                              00000007
PCL                               00000002
PCLATH                            0000000A
PCON                              0000008E
PDC0                              00000000
PDC1                              00000001
PDC2                              00000002
PDC3                              00000003
PDC4                              00000004
PDC5                              00000005
PDC6                              00000006
PEIE                              00000006
PEN                               00000002
PIE1                              0000008C
PIE2                              0000008D
PIR1                              0000000C
PIR2                              0000000D
PORTA                             00000005
PORTB                             00000006
PORTC                             00000007
PORTD                             00000008
PORTE                             00000009
PR2                               00000092
PREPARAR_TX                       00000061
PRSEN                             00000007
PS0                               00000000
PS1                               00000001
MPASM 5.87                        CODIGO.ASM   6-16-2025  12:28:31         PAGE 16


SYMBOL TABLE
  LABEL                             VALUE 

PS2                               00000002
PSA                               00000003
PSSAC0                            00000002
PSSAC1                            00000003
PSSBD0                            00000000
PSSBD1                            00000001
PSTRCON                           0000009D
PULSR                             00000002
PULSS                             00000003
PWM1CON                           0000009B
R                                 00000002
RA0                               00000000
RA1                               00000001
RA2                               00000002
RA3                               00000003
RA4                               00000004
RA5                               00000005
RA6                               00000006
RA7                               00000007
RB0                               00000000
RB1                               00000001
RB2                               00000002
RB3                               00000003
RB4                               00000004
RB5                               00000005
RB6                               00000006
RB7                               00000007
RBIE                              00000003
RBIF                              00000000
RC0                               00000000
RC1                               00000001
RC2                               00000002
RC3                               00000003
RC4                               00000004
RC5                               00000005
RC6                               00000006
RC7                               00000007
RC8_9                             00000006
RC9                               00000006
RCD8                              00000000
RCEN                              00000003
RCIDL                             00000006
RCIE                              00000005
RCIF                              00000005
RCREG                             0000001A
RCSTA                             00000018
RD                                00000000
RD0                               00000000
RD1                               00000001
RD2                               00000002
RD3                               00000003
RD4                               00000004
RD5                               00000005
MPASM 5.87                        CODIGO.ASM   6-16-2025  12:28:31         PAGE 17


SYMBOL TABLE
  LABEL                             VALUE 

RD6                               00000006
RD7                               00000007
RE0                               00000000
RE1                               00000001
RE2                               00000002
RE3                               00000003
READ_WRITE                        00000002
RETARDO_20ms                      00000100
RP0                               00000005
RP1                               00000006
RSEN                              00000001
RX9                               00000006
RX9D                              00000000
R_NOT_W                           00000002
R_W                               00000002
S                                 00000003
SALIR                             0000014A
SBOREN                            00000004
SCAN_COL_LOOP                     000000B4
SCAN_ROW_LOOP                     000000C8
SCKP                              00000004
SCS                               00000000
SEN                               00000000
SENDB                             00000003
SMP                               00000007
SPBRG                             00000099
SPBRGH                            0000009A
SPEN                              00000007
SR0                               00000006
SR1                               00000007
SRCON                             00000185
SREN                              00000005
SSPADD                            00000093
SSPBUF                            00000013
SSPCON                            00000014
SSPCON2                           00000091
SSPEN                             00000005
SSPIE                             00000003
SSPIF                             00000003
SSPM0                             00000000
SSPM1                             00000001
SSPM2                             00000002
SSPM3                             00000003
SSPMSK                            00000093
SSPOV                             00000006
SSPSTAT                           00000094
STATUS                            00000003
STATUST                           00000071
STRA                              00000000
STRB                              00000001
STRC                              00000002
STRD                              00000003
STRSYNC                           00000004
MPASM 5.87                        CODIGO.ASM   6-16-2025  12:28:31         PAGE 18


SYMBOL TABLE
  LABEL                             VALUE 

SWDTEN                            00000000
SYNC                              00000004
T0CS                              00000005
T0IE                              00000005
T0IF                              00000002
T0SE                              00000004
T1CKPS0                           00000004
T1CKPS1                           00000005
T1CON                             00000010
T1GINV                            00000007
T1GIV                             00000007
T1GSS                             00000001
T1INSYNC                          00000002
T1OSCEN                           00000003
T1SYNC                            00000002
T2CKPS0                           00000000
T2CKPS1                           00000001
T2CON                             00000012
TABLA_7SEG                        0000010A
TECLADO                           00000080
TECLADO_PRIMER_DIGITO             000000AD
TECLADO_SEGUNDO_DIGITO            0000009D
TECLAS                            000000E3
TEMPACTUAL                        0000002E
TEMPREF                           00000021
TMR0                              00000001
TMR0IE                            00000005
TMR0IF                            00000002
TMR1                              0000000E
TMR1CS                            00000001
TMR1GE                            00000006
TMR1H                             0000000F
TMR1IE                            00000000
TMR1IF                            00000000
TMR1L                             0000000E
TMR1ON                            00000000
TMR2                              00000011
TMR2IE                            00000001
TMR2IF                            00000001
TMR2ON                            00000002
TOUTPS0                           00000003
TOUTPS1                           00000004
TOUTPS2                           00000005
TOUTPS3                           00000006
TRISA                             00000085
TRISA0                            00000000
TRISA1                            00000001
TRISA2                            00000002
TRISA3                            00000003
TRISA4                            00000004
TRISA5                            00000005
TRISA6                            00000006
TRISA7                            00000007
MPASM 5.87                        CODIGO.ASM   6-16-2025  12:28:31         PAGE 19


SYMBOL TABLE
  LABEL                             VALUE 

TRISB                             00000086
TRISB0                            00000000
TRISB1                            00000001
TRISB2                            00000002
TRISB3                            00000003
TRISB4                            00000004
TRISB5                            00000005
TRISB6                            00000006
TRISB7                            00000007
TRISC                             00000087
TRISC0                            00000000
TRISC1                            00000001
TRISC2                            00000002
TRISC3                            00000003
TRISC4                            00000004
TRISC5                            00000005
TRISC6                            00000006
TRISC7                            00000007
TRISD                             00000088
TRISD0                            00000000
TRISD1                            00000001
TRISD2                            00000002
TRISD3                            00000003
TRISD4                            00000004
TRISD5                            00000005
TRISD6                            00000006
TRISD7                            00000007
TRISE                             00000089
TRISE0                            00000000
TRISE1                            00000001
TRISE2                            00000002
TRISE3                            00000003
TRMT                              00000001
TUN0                              00000000
TUN1                              00000001
TUN2                              00000002
TUN3                              00000003
TUN4                              00000004
TX8_9                             00000006
TX9                               00000006
TX9D                              00000000
TXD8                              00000000
TXEN                              00000005
TXIE                              00000004
TXIF                              00000004
TXREG                             00000019
TXSTA                             00000098
UA                                00000001
ULPWUE                            00000005
ULPWUIE                           00000002
ULPWUIF                           00000002
VCFG0                             00000004
VCFG1                             00000005
MPASM 5.87                        CODIGO.ASM   6-16-2025  12:28:31         PAGE 20


SYMBOL TABLE
  LABEL                             VALUE 

VR0                               00000000
VR1                               00000001
VR2                               00000002
VR3                               00000003
VRCON                             00000097
VREN                              00000007
VROE                              00000006
VRR                               00000005
VRSS                              00000004
W                                 00000000
WCOL                              00000007
WDTCON                            00000105
WDTPS0                            00000001
WDTPS1                            00000002
WDTPS2                            00000003
WDTPS3                            00000004
WPUB                              00000095
WPUB0                             00000000
WPUB1                             00000001
WPUB2                             00000002
WPUB3                             00000003
WPUB4                             00000004
WPUB5                             00000005
WPUB6                             00000006
WPUB7                             00000007
WR                                00000001
WREG_TEMP                         0000002C
WREG_TEMP2                        0000002D
WREN                              00000002
WRERR                             00000003
WTEMP                             00000070
WUE                               00000001
Z                                 00000002
_BOR21V                           00003EFF
_BOR40V                           00003FFF
_BOR4V_BOR21V                     00003EFF
_BOR4V_BOR40V                     00003FFF
_BOREN_NSLEEP                     00003EFF
_BOREN_OFF                        00003CFF
_BOREN_ON                         00003FFF
_BOREN_SBODEN                     00003DFF
_BOR_NSLEEP                       00003EFF
_BOR_OFF                          00003CFF
_BOR_ON                           00003FFF
_BOR_SBODEN                       00003DFF
_CONFIG1                          00002007
_CONFIG2                          00002008
_CPD_OFF                          00003FFF
_CPD_ON                           00003F7F
_CP_OFF                           00003FFF
_CP_ON                            00003FBF
_DEBUG_OFF                        00003FFF
_DEBUG_ON                         00001FFF
MPASM 5.87                        CODIGO.ASM   6-16-2025  12:28:31         PAGE 21


SYMBOL TABLE
  LABEL                             VALUE 

_DEVID1                           00002006
_EC_OSC                           00003FFB
_EXTRC                            00003FFF
_EXTRCIO                          00003FFE
_EXTRC_OSC_CLKOUT                 00003FFF
_EXTRC_OSC_NOCLKOUT               00003FFE
_FCMEN_OFF                        000037FF
_FCMEN_ON                         00003FFF
_FOSC_EC                          00003FFB
_FOSC_EXTRC_CLKOUT                00003FFF
_FOSC_EXTRC_NOCLKOUT              00003FFE
_FOSC_HS                          00003FFA
_FOSC_INTRC_CLKOUT                00003FFD
_FOSC_INTRC_NOCLKOUT              00003FFC
_FOSC_LP                          00003FF8
_FOSC_XT                          00003FF9
_HS_OSC                           00003FFA
_IDLOC0                           00002000
_IDLOC1                           00002001
_IDLOC2                           00002002
_IDLOC3                           00002003
_IESO_OFF                         00003BFF
_IESO_ON                          00003FFF
_INTOSC                           00003FFD
_INTOSCIO                         00003FFC
_INTRC_OSC_CLKOUT                 00003FFD
_INTRC_OSC_NOCLKOUT               00003FFC
_LP_OSC                           00003FF8
_LVP_OFF                          00002FFF
_LVP_ON                           00003FFF
_MCLRE_OFF                        00003FDF
_MCLRE_ON                         00003FFF
_PWRTE_OFF                        00003FFF
_PWRTE_ON                         00003FEF
_WDTE_OFF                         00003FF7
_WDTE_ON                          00003FFF
_WDT_OFF                          00003FF7
_WDT_ON                           00003FFF
_WRT_1FOURTH                      00003BFF
_WRT_256                          00003DFF
_WRT_HALF                         000039FF
_WRT_OFF                          00003FFF
_XT_OSC                           00003FF9
__16F887                          00000001

Errors   :     0
Warnings :     1 reported,     0 suppressed
Messages :    12 reported,     0 suppressed

